; Function Attrs: mustprogress nounwind uwtable
define hidden void @_ZN6Assimp11XFileParserD2Ev(ptr nocapture noundef nonnull readonly align 8 dereferenceable(56) %this) unnamed_addr #2 align 2 {
entry:
  %mScene = getelementptr inbounds i8, ptr %this, i64 48
  %0 = load ptr, ptr %mScene, align 8
  %isnull = icmp eq ptr %0, null
  br i1 %isnull, label %delete.end, label %delete.notnull

delete.notnull:                                   ; preds = %entry
  tail call void @_ZN6Assimp5XFile5SceneD2Ev(ptr noundef nonnull align 8 dereferenceable(84) %0) #21
  tail call void @_ZdlPv(ptr noundef nonnull %0) #25
  br label %delete.end

delete.end:                                       ; preds = %delete.notnull, %entry
  ret void
}